Certificate:
    Data:
        Version: 1 (0x0)
        Serial Number: 1048577 (0x100001)
    Signature Algorithm: sha256WithRSAEncryption
        Issuer: CN=httprust-test-ca, C=FY, L=Fryslan, ST=Fryslan, O=kdv
        Validity
            Not Before: May 25 10:31:40 2019 GMT
            Not After : May 22 10:31:40 2029 GMT
        Subject: C=FY, ST=Fryslan, O=kdv, CN=httprust-test
        Subject Public Key Info:
            Public Key Algorithm: rsaEncryption
                Public-Key: (2048 bit)
                Modulus:
                    00:d1:89:9c:c4:02:b7:f4:ac:f3:ee:46:32:b6:1b:
                    88:69:d1:2d:e8:44:82:68:4c:fd:1b:f8:b2:a9:28:
                    3e:b3:55:d1:b5:a8:18:16:6a:32:93:0c:a8:2d:98:
                    86:06:50:9a:7c:85:76:3f:5d:8a:2a:54:8a:07:09:
                    c6:2b:50:e5:e6:07:a2:33:53:27:fb:c0:06:b3:47:
                    32:a5:ce:83:a7:3f:98:51:13:09:ae:74:2b:1e:84:
                    b7:22:bb:55:df:50:e2:50:21:29:48:b2:da:cb:65:
                    8c:bf:ce:28:06:4c:46:7f:ff:aa:c8:13:a4:8a:c3:
                    f2:15:55:2e:4d:46:37:83:0d:8e:39:97:37:f0:b0:
                    1e:74:58:af:11:40:5d:3e:c7:27:08:93:c7:0a:41:
                    9a:51:6b:2f:b3:b8:9e:10:be:24:81:65:2f:16:59:
                    ab:9f:a9:0c:ce:ab:32:48:15:58:f5:e6:b9:89:5c:
                    8f:53:1c:25:56:61:1a:33:84:6c:11:bd:52:d4:5a:
                    ec:19:e2:93:3c:d5:61:d7:20:90:af:d4:cf:2c:d5:
                    d5:95:2c:b0:b9:e9:81:36:52:a4:cf:38:6c:bf:32:
                    a9:03:56:f1:2b:61:7f:c8:78:56:21:43:27:89:90:
                    47:6e:7b:9a:5b:ae:b6:26:15:81:6e:af:2f:d6:0a:
                    b4:bd
                Exponent: 65537 (0x10001)
    Signature Algorithm: sha256WithRSAEncryption
         b2:4b:d6:f8:29:e4:d3:73:0a:6f:90:86:9e:4a:54:8e:71:8c:
         1d:1e:b5:c7:53:60:c1:f5:b4:ec:47:6d:44:cd:4a:1d:34:75:
         39:13:a4:26:6f:5b:11:3d:34:67:62:fe:c0:19:ba:cd:28:9a:
         d8:b9:32:30:5e:7c:d7:88:93:2e:f8:1b:b5:8f:ad:ea:0b:c2:
         08:7e:31:14:08:c1:9b:30:f1:17:e3:7b:3a:7c:fe:e4:08:d8:
         f8:b5:d7:d3:44:de:92:f3:dd:aa:d8:0d:2e:f7:8d:9a:c8:3e:
         f1:79:57:50:9b:02:7a:0b:45:a5:c5:bc:22:ab:6a:6c:c4:96:
         c0:ee:2e:7f:e2:71:aa:1c:30:fa:95:3a:12:0d:c2:57:f2:b6:
         7b:59:6c:64:4e:0a:8a:d4:99:51:a8:2a:92:25:e2:bb:71:52:
         72:c6:16:9a:ad:70:00:f4:9a:09:c9:aa:b0:bc:e6:83:05:ec:
         39:84:f4:1b:4a:e9:93:23:25:2c:50:0c:98:5e:2e:70:e6:f0:
         76:ae:af:b9:3b:c7:a2:ba:c7:e0:05:2e:99:ea:e4:76:5c:55:
         17:e1:67:1e:89:97:03:33:1d:f2:72:ae:32:5c:0e:91:69:ac:
         87:7f:4b:e6:84:fb:c9:e6:22:27:4d:bf:8f:df:1e:2a:94:23:
         fa:de:a6:bb
-----BEGIN CERTIFICATE-----
MIIDFTCCAf0CAxAAATANBgkqhkiG9w0BAQsFADBaMRkwFwYDVQQDExBodHRwcnVz
dC10ZXN0LWNhMQswCQYDVQQGEwJGWTEQMA4GA1UEBxMHRnJ5c2xhbjEQMA4GA1UE
CBMHRnJ5c2xhbjEMMAoGA1UEChMDa2R2MB4XDTE5MDUyNTEwMzE0MFoXDTI5MDUy
MjEwMzE0MFowRTELMAkGA1UEBhMCRlkxEDAOBgNVBAgTB0ZyeXNsYW4xDDAKBgNV
BAoTA2tkdjEWMBQGA1UEAxMNaHR0cHJ1c3QtdGVzdDCCASIwDQYJKoZIhvcNAQEB
BQADggEPADCCAQoCggEBANGJnMQCt/Ss8+5GMrYbiGnRLehEgmhM/Rv4sqkoPrNV
0bWoGBZqMpMMqC2YhgZQmnyFdj9diipUigcJxitQ5eYHojNTJ/vABrNHMqXOg6c/
mFETCa50Kx6EtyK7Vd9Q4lAhKUiy2stljL/OKAZMRn//qsgTpIrD8hVVLk1GN4MN
jjmXN/CwHnRYrxFAXT7HJwiTxwpBmlFrL7O4nhC+JIFlLxZZq5+pDM6rMkgVWPXm
uYlcj1McJVZhGjOEbBG9UtRa7BnikzzVYdcgkK/UzyzV1ZUssLnpgTZSpM84bL8y
qQNW8Sthf8h4ViFDJ4mQR257mluutiYVgW6vL9YKtL0CAwEAATANBgkqhkiG9w0B
AQsFAAOCAQEAskvW+Cnk03MKb5CGnkpUjnGMHR61x1NgwfW07EdtRM1KHTR1OROk
Jm9bET00Z2L+wBm6zSia2LkyMF5814iTLvgbtY+t6gvCCH4xFAjBmzDxF+N7Onz+
5AjY+LXX00TekvPdqtgNLveNmsg+8XlXUJsCegtFpcW8IqtqbMSWwO4uf+Jxqhww
+pU6Eg3CV/K2e1lsZE4KitSZUagqkiXiu3FScsYWmq1wAPSaCcmqsLzmgwXsOYT0
G0rpkyMlLFAMmF4ucObwdq6vuTvHorrH4AUumerkdlxVF+FnHomXAzMd8nKuMlwO
kWmsh39L5oT7yeYiJ02/j98eKpQj+t6muw==
-----END CERTIFICATE-----
